target datalayout = "e-m:e-p270:32:32-p271:32:32-p272:64:64-i64:64-i128:128-f80:128-n8:16:32:64-S128"
target triple = "x86_64-pc-linux-gnu"

%struct.SN_env = type { ptr, i32, i32, i32, i32, i32, ptr, ptr }

; Function Attrs: nounwind uwtable
define internal i32 @r_mark_sUnUz(ptr noundef %0) #0 {
  %2 = alloca i32, align 4
  %3 = alloca ptr, align 8
  store ptr %0, ptr %3, align 8
  %4 = load ptr, ptr %3, align 8
  %5 = getelementptr inbounds nuw %struct.SN_env, ptr %4, i32 0, i32 1
  %6 = load i32, ptr %5, align 8
  %7 = sub i32 %6, 4
  %8 = load ptr, ptr %3, align 8
  %9 = getelementptr inbounds nuw %struct.SN_env, ptr %8, i32 0, i32 3
  %10 = load i32, ptr %9, align 8
  %11 = icmp sle i32 %7, %10
  br i1 %11, label %25, label %12

12:                                               ; preds = %1
  %13 = load ptr, ptr %3, align 8
  %14 = getelementptr inbounds nuw %struct.SN_env, ptr %13, i32 0, i32 0
  %15 = load ptr, ptr %14, align 8
  %16 = load ptr, ptr %3, align 8
  %17 = getelementptr inbounds nuw %struct.SN_env, ptr %16, i32 0, i32 1
  %18 = load i32, ptr %17, align 8
  %19 = sub i32 %18, 1
  %20 = sext i32 %19 to i64
  %21 = getelementptr inbounds i8, ptr %15, i64 %20
  %22 = load i8, ptr %21, align 1
  %23 = zext i8 %22 to i32
  %24 = icmp ne i32 %23, 122
  br i1 %24, label %25, label %26

25:                                               ; preds = %12, %1
  store i32 0, ptr %2, align 4
  br label %32

26:                                               ; preds = %12
  %27 = load ptr, ptr %3, align 8
  %28 = call i32 @find_among_b(ptr noundef %27, ptr noundef @a_15, i32 noundef 4)
  %29 = icmp ne i32 %28, 0
  br i1 %29, label %31, label %30

30:                                               ; preds = %26
  store i32 0, ptr %2, align 4
  br label %32

31:                                               ; preds = %26
  store i32 1, ptr %2, align 4
  br label %32

32:                                               ; preds = %31, %30, %25
  %33 = load i32, ptr %2, align 4
  ret i32 %33
}